target datalayout = "e-m:e-p270:32:32-p271:32:32-p272:64:64-i64:64-i128:128-f80:128-n8:16:32:64-S128"
target triple = "x86_64-pc-linux-gnu"

%"class.duckdb::BooleanWriterPageState" = type <{ %"class.duckdb::ColumnWriterPageState", i8, i8, [6 x i8] }>
%"class.duckdb::ColumnWriterPageState" = type { ptr }

; Function Attrs: mustprogress nounwind uwtable
define linkonce_odr noundef ptr @_ZN6duckdb19const_data_ptr_castIhEEPKhPKT_(ptr noundef %0) #5 comdat {
  %2 = alloca ptr, align 8
  store ptr %0, ptr %2, align 8, !tbaa !161
  %3 = load ptr, ptr %2, align 8, !tbaa !161
  ret ptr %3
}

; Function Attrs: mustprogress nounwind uwtable
define linkonce_odr void @_ZN6duckdb16DynamicCastCheckINS_22BooleanWriterPageStateENS_21ColumnWriterPageStateEEEvPKT0_(ptr noundef %0) #5 comdat {
  %2 = alloca ptr, align 8
  store ptr %0, ptr %2, align 8, !tbaa !124
  ret void
}

; Function Attrs: mustprogress uwtable
define linkonce_odr void @_ZN6duckdb11WriteStream5WriteIhEEvT_(ptr noundef nonnull align 8 dereferenceable(8) %0, i8 noundef zeroext %1) #0 comdat align 2 {
  %3 = alloca ptr, align 8
  %4 = alloca i8, align 1
  store ptr %0, ptr %3, align 8, !tbaa !120
  store i8 %1, ptr %4, align 1, !tbaa !140
  %5 = load ptr, ptr %3, align 8
  %6 = call noundef ptr @_ZN6duckdb19const_data_ptr_castIhEEPKhPKT_(ptr noundef %4)
  %7 = load ptr, ptr %5, align 8, !tbaa !16
  %8 = getelementptr inbounds ptr, ptr %7, i64 0
  %9 = load ptr, ptr %8, align 8
  call void %9(ptr noundef nonnull align 8 dereferenceable(8) %5, ptr noundef %6, i64 noundef 1)
  ret void
}

; Function Attrs: mustprogress uwtable
define linkonce_odr noundef nonnull align 8 dereferenceable(10) ptr @_ZN6duckdb21ColumnWriterPageState4CastINS_22BooleanWriterPageStateEEERT_v(ptr noundef nonnull align 8 dereferenceable(8) %0) #0 comdat align 2 {
  %2 = alloca ptr, align 8
  store ptr %0, ptr %2, align 8, !tbaa !124
  %3 = load ptr, ptr %2, align 8
  call void @_ZN6duckdb16DynamicCastCheckINS_22BooleanWriterPageStateENS_21ColumnWriterPageStateEEEvPKT0_(ptr noundef %3)
  ret ptr %3
}

; Function Attrs: mustprogress uwtable
define void @_ZN6duckdb19BooleanColumnWriter14FlushPageStateERNS_11WriteStreamEPNS_21ColumnWriterPageStateE(ptr noundef nonnull align 8 dereferenceable(65) %0, ptr noundef nonnull align 8 dereferenceable(8) %1, ptr noundef %2) unnamed_addr #0 align 2 {
  %4 = alloca ptr, align 8
  %5 = alloca ptr, align 8
  %6 = alloca ptr, align 8
  %7 = alloca ptr, align 8
  store ptr %0, ptr %4, align 8, !tbaa !101
  store ptr %1, ptr %5, align 8, !tbaa !120
  store ptr %2, ptr %6, align 8, !tbaa !124
  call void @llvm.lifetime.start.p0(i64 8, ptr %7) #19
  %8 = load ptr, ptr %6, align 8, !tbaa !124
  %9 = call noundef nonnull align 8 dereferenceable(10) ptr @_ZN6duckdb21ColumnWriterPageState4CastINS_22BooleanWriterPageStateEEERT_v(ptr noundef nonnull align 8 dereferenceable(8) %8)
  store ptr %9, ptr %7, align 8, !tbaa !126
  %10 = load ptr, ptr %7, align 8, !tbaa !126
  %11 = getelementptr inbounds nuw %"class.duckdb::BooleanWriterPageState", ptr %10, i32 0, i32 2
  %12 = load i8, ptr %11, align 1, !tbaa !134
  %13 = zext i8 %12 to i32
  %14 = icmp sgt i32 %13, 0
  br i1 %14, label %15, label %24

15:                                               ; preds = %3
  %16 = load ptr, ptr %5, align 8, !tbaa !120
  %17 = load ptr, ptr %7, align 8, !tbaa !126
  %18 = getelementptr inbounds nuw %"class.duckdb::BooleanWriterPageState", ptr %17, i32 0, i32 1
  %19 = load i8, ptr %18, align 8, !tbaa !137
  call void @_ZN6duckdb11WriteStream5WriteIhEEvT_(ptr noundef nonnull align 8 dereferenceable(8) %16, i8 noundef zeroext %19)
  %20 = load ptr, ptr %7, align 8, !tbaa !126
  %21 = getelementptr inbounds nuw %"class.duckdb::BooleanWriterPageState", ptr %20, i32 0, i32 1
  store i8 0, ptr %21, align 8, !tbaa !137
  %22 = load ptr, ptr %7, align 8, !tbaa !126
  %23 = getelementptr inbounds nuw %"class.duckdb::BooleanWriterPageState", ptr %22, i32 0, i32 2
  store i8 0, ptr %23, align 1, !tbaa !134
  br label %24

24:                                               ; preds = %15, %3
  call void @llvm.lifetime.end.p0(i64 8, ptr %7) #19
  ret void
}