; Function Attrs: mustprogress uwtable
define void @_ZN6duckdb19BooleanColumnWriter14FlushPageStateERNS_11WriteStreamEPNS_21ColumnWriterPageStateE(ptr nonnull readnone align 8 captures(none) %0, ptr noundef nonnull align 8 dereferenceable(8) %1, ptr noundef captures(none) %2) unnamed_addr #0 align 2 {
  %4 = alloca i8, align 1
  %5 = getelementptr inbounds nuw i8, ptr %2, i64 9
  %6 = load i8, ptr %5, align 1, !tbaa !110
  %.not = icmp eq i8 %6, 0
  br i1 %.not, label %12, label %7

7:                                                ; preds = %3
  %8 = getelementptr inbounds nuw i8, ptr %2, i64 8
  %9 = load i8, ptr %8, align 8, !tbaa !113
  call void @llvm.lifetime.start.p0(i64 1, ptr nonnull %4)
  store i8 %9, ptr %4, align 1, !tbaa !115
  %10 = load ptr, ptr %1, align 8, !tbaa !3
  %11 = load ptr, ptr %10, align 8
  call void %11(ptr noundef nonnull align 8 dereferenceable(8) %1, ptr noundef nonnull %4, i64 noundef 1)
  call void @llvm.lifetime.end.p0(i64 1, ptr nonnull %4)
  store i8 0, ptr %8, align 8, !tbaa !113
  store i8 0, ptr %5, align 1, !tbaa !110
  br label %12

12:                                               ; preds = %7, %3
  ret void
}